target datalayout = "e-m:e-p270:32:32-p271:32:32-p272:64:64-i64:64-i128:128-f80:128-n8:16:32:64-S128"
target triple = "x86_64-pc-linux-gnu"

%struct.QMetaObject = type { %"struct.QMetaObject::Data" }
%"struct.QMetaObject::Data" = type { %"struct.QMetaObject::SuperData", ptr, ptr, ptr, ptr, ptr, ptr }
%"struct.QMetaObject::SuperData" = type { ptr }
%struct.field_info = type { ptr, i32, i32, i32, i32, i32, i32, ptr, ptr, ptr, i32, i32 }
%struct._proto_node = type { ptr, ptr, ptr, ptr, ptr, ptr, ptr }
%struct._header_field_info = type { ptr, ptr, i32, i32, ptr, i64, ptr, i32, i32, i32, i32, ptr }

@_ZN14ProtoTreeModel16staticMetaObjectE = external global %struct.QMetaObject, align 8

; Function Attrs: mustprogress null_pointer_is_valid sspstrong uwtable
define linkonce_odr noundef ptr @_ZNK11QMetaObject4castEP7QObject(ptr noundef align 8 dereferenceable_or_null(56) %0, ptr noundef %1) #0 comdat align 2 {
  %3 = alloca ptr, align 8
  %4 = alloca ptr, align 8
  store ptr %0, ptr %3, align 8
  store ptr %1, ptr %4, align 8
  %5 = load ptr, ptr %3, align 8
  %6 = load ptr, ptr %4, align 8
  %7 = call noundef ptr @_ZNK11QMetaObject4castEPK7QObject(ptr noundef align 8 dereferenceable_or_null(56) %5, ptr noundef %6)
  ret ptr %7
}

; Function Attrs: mustprogress null_pointer_is_valid sspstrong uwtable
define void @_ZN9ProtoTree16emitRelatedFrameEi16ft_framenum_type(ptr noundef align 8 dereferenceable_or_null(208) %0, i32 noundef %1, i32 noundef %2) #0 align 2 {
  %4 = alloca ptr, align 8
  %5 = alloca i32, align 4
  %6 = alloca i32, align 4
  store ptr %0, ptr %4, align 8
  store i32 %1, ptr %5, align 4
  store i32 %2, ptr %6, align 4
  %7 = load ptr, ptr %4, align 8
  %8 = load i32, ptr %5, align 4
  %9 = load i32, ptr %6, align 4
  call void @_ZN9ProtoTree12relatedFrameEi16ft_framenum_type(ptr noundef align 8 dereferenceable_or_null(208) %7, i32 noundef %8, i32 noundef %9)
  ret void
}

; Function Attrs: inlinehint mustprogress null_pointer_is_valid sspstrong uwtable
define linkonce_odr noundef ptr @_Z12qobject_castIP14ProtoTreeModelET_P7QObject(ptr noundef %0) #7 comdat {
  %2 = alloca ptr, align 8
  store ptr %0, ptr %2, align 8
  %3 = load ptr, ptr %2, align 8
  %4 = call noundef ptr @_ZNK11QMetaObject4castEP7QObject(ptr noundef align 8 dereferenceable_or_null(56) @_ZN14ProtoTreeModel16staticMetaObjectE, ptr noundef %3)
  ret ptr %4
}

; Function Attrs: mustprogress null_pointer_is_valid sspstrong uwtable
define void @_ZN9ProtoTree15foreachTreeNodeEP11_proto_nodePv(ptr noundef %0, ptr noundef %1) #0 align 2 {
  %3 = alloca ptr, align 8
  %4 = alloca ptr, align 8
  %5 = alloca ptr, align 8
  %6 = alloca ptr, align 8
  %7 = alloca i32, align 4
  %8 = alloca i32, align 4
  store ptr %0, ptr %3, align 8
  store ptr %1, ptr %4, align 8
  call void @llvm.lifetime.start.p0(i64 8, ptr %5) #20
  %9 = load ptr, ptr %4, align 8
  store ptr %9, ptr %5, align 8
  call void @llvm.lifetime.start.p0(i64 8, ptr %6) #20
  %10 = load ptr, ptr %5, align 8
  %11 = call noundef ptr @_ZNK17QAbstractItemView5modelEv(ptr noundef align 8 dereferenceable_or_null(40) %10)
  %12 = call noundef ptr @_Z12qobject_castIP14ProtoTreeModelET_P7QObject(ptr noundef %11)
  store ptr %12, ptr %6, align 8
  %13 = load ptr, ptr %5, align 8
  %14 = icmp ne ptr %13, null
  br i1 %14, label %15, label %18

15:                                               ; preds = %2
  %16 = load ptr, ptr %6, align 8
  %17 = icmp ne ptr %16, null
  br i1 %17, label %19, label %18

18:                                               ; preds = %15, %2
  store i32 1, ptr %7, align 4
  br label %49

19:                                               ; preds = %15
  %20 = load ptr, ptr %3, align 8
  %21 = getelementptr inbounds nuw %struct._proto_node, ptr %20, i32 0, i32 5
  %22 = load ptr, ptr %21, align 8
  %23 = getelementptr inbounds nuw %struct.field_info, ptr %22, i32 0, i32 0
  %24 = load ptr, ptr %23, align 8
  %25 = getelementptr inbounds nuw %struct._header_field_info, ptr %24, i32 0, i32 2
  %26 = load i32, ptr %25, align 8
  %27 = icmp eq i32 %26, 35
  br i1 %27, label %28, label %46

28:                                               ; preds = %19
  call void @llvm.lifetime.start.p0(i64 4, ptr %8) #20
  %29 = load ptr, ptr %3, align 8
  %30 = getelementptr inbounds nuw %struct._proto_node, ptr %29, i32 0, i32 5
  %31 = load ptr, ptr %30, align 8
  %32 = getelementptr inbounds nuw %struct.field_info, ptr %31, i32 0, i32 0
  %33 = load ptr, ptr %32, align 8
  %34 = getelementptr inbounds nuw %struct._header_field_info, ptr %33, i32 0, i32 4
  %35 = load ptr, ptr %34, align 8
  %36 = ptrtoint ptr %35 to i64
  %37 = trunc i64 %36 to i32
  store i32 %37, ptr %8, align 4
  %38 = load ptr, ptr %5, align 8
  %39 = load ptr, ptr %3, align 8
  %40 = getelementptr inbounds nuw %struct._proto_node, ptr %39, i32 0, i32 5
  %41 = load ptr, ptr %40, align 8
  %42 = getelementptr inbounds nuw %struct.field_info, ptr %41, i32 0, i32 9
  %43 = load ptr, ptr %42, align 8
  %44 = call i32 @fvalue_get_uinteger(ptr noundef %43)
  %45 = load i32, ptr %8, align 4
  call void @_ZN9ProtoTree16emitRelatedFrameEi16ft_framenum_type(ptr noundef align 8 dereferenceable_or_null(208) %38, i32 noundef %44, i32 noundef %45)
  call void @llvm.lifetime.end.p0(i64 4, ptr %8) #20
  br label %46

46:                                               ; preds = %28, %19
  %47 = load ptr, ptr %3, align 8
  %48 = load ptr, ptr %4, align 8
  call void @proto_tree_children_foreach(ptr noundef %47, ptr noundef @_ZN9ProtoTree15foreachTreeNodeEP11_proto_nodePv, ptr noundef %48)
  store i32 0, ptr %7, align 4
  br label %49

49:                                               ; preds = %46, %18
  call void @llvm.lifetime.end.p0(i64 8, ptr %6) #20
  call void @llvm.lifetime.end.p0(i64 8, ptr %5) #20
  %50 = load i32, ptr %7, align 4
  switch i32 %50, label %52 [
    i32 0, label %51
    i32 1, label %51
  ]

51:                                               ; preds = %49, %49
  ret void

52:                                               ; preds = %49
  unreachable
}