; Function Attrs: mustprogress null_pointer_is_valid sspstrong uwtable
define void @_ZN9ProtoTree15foreachTreeNodeEP11_proto_nodePv(ptr noundef %0, ptr noundef %1) #0 align 2 {
  %3 = tail call noundef ptr @_ZNK17QAbstractItemView5modelEv(ptr noundef align 8 dereferenceable_or_null(40) %1)
  %4 = tail call noundef ptr @_ZNK11QMetaObject4castEPK7QObject(ptr noundef nonnull align 8 dereferenceable_or_null(56) @_ZN14ProtoTreeModel16staticMetaObjectE, ptr noundef %3)
  %5 = icmp ne ptr %1, null
  %6 = icmp ne ptr %4, null
  %or.cond = and i1 %5, %6
  br i1 %or.cond, label %7, label %23

7:                                                ; preds = %2
  %8 = getelementptr inbounds nuw i8, ptr %0, i64 40
  %9 = load ptr, ptr %8, align 8
  %10 = load ptr, ptr %9, align 8
  %11 = getelementptr inbounds nuw i8, ptr %10, i64 16
  %12 = load i32, ptr %11, align 8
  %13 = icmp eq i32 %12, 35
  br i1 %13, label %14, label %22

14:                                               ; preds = %7
  %15 = getelementptr inbounds nuw i8, ptr %10, i64 24
  %16 = load ptr, ptr %15, align 8
  %17 = ptrtoint ptr %16 to i64
  %18 = trunc i64 %17 to i32
  %19 = getelementptr inbounds nuw i8, ptr %9, i64 48
  %20 = load ptr, ptr %19, align 8
  %21 = tail call i32 @fvalue_get_uinteger(ptr noundef %20)
  tail call void @_ZN9ProtoTree12relatedFrameEi16ft_framenum_type(ptr noundef nonnull align 8 dereferenceable_or_null(208) %1, i32 noundef %21, i32 noundef %18)
  br label %22

22:                                               ; preds = %14, %7
  tail call void @proto_tree_children_foreach(ptr noundef %0, ptr noundef nonnull @_ZN9ProtoTree15foreachTreeNodeEP11_proto_nodePv, ptr noundef nonnull %1)
  br label %23

23:                                               ; preds = %2, %22
  ret void
}